; Function Attrs: nounwind sspstrong uwtable
define dso_local range(i64 0, 21) i64 @rb_mod_include_p(i64 noundef %0, i64 noundef %1) local_unnamed_addr #0 {
  %3 = icmp eq i64 %1, 0
  %4 = and i64 %1, 7
  %5 = icmp ne i64 %4, 0
  %6 = or i1 %3, %5
  br i1 %6, label %rbimpl_RB_TYPE_P_fastpath.exit.thread.i, label %7, !prof !39

7:                                                ; preds = %2
  %8 = inttoptr i64 %1 to ptr
  %9 = load i64, ptr %8, align 8, !tbaa !35
  %10 = and i64 %9, 31
  %11 = icmp eq i64 %10, 3
  br i1 %11, label %Check_Type.exit, label %rbimpl_RB_TYPE_P_fastpath.exit.thread.i, !prof !40

rbimpl_RB_TYPE_P_fastpath.exit.thread.i:          ; preds = %7, %2
  tail call void @rb_unexpected_type(i64 noundef %1, i32 noundef 3) #22
  unreachable

Check_Type.exit:                                  ; preds = %7
  %12 = inttoptr i64 %0 to ptr
  %.0.in14 = getelementptr inbounds nuw i8, ptr %12, i64 16
  %.015 = load i64, ptr %.0.in14, align 8, !tbaa !34
  %.not16 = icmp eq i64 %.015, 0
  br i1 %.not16, label %._crit_edge, label %.lr.ph

.lr.ph:                                           ; preds = %Check_Type.exit, %23
  %.017 = phi i64 [ %.0, %23 ], [ %.015, %Check_Type.exit ]
  %13 = inttoptr i64 %.017 to ptr
  %14 = load i64, ptr %13, align 8, !tbaa !35
  %15 = and i64 %14, 31
  %16 = icmp eq i64 %15, 28
  br i1 %16, label %17, label %23

17:                                               ; preds = %.lr.ph
  %18 = and i64 %.017, 7
  %.not13 = icmp ne i64 %18, 0
  %19 = and i64 %14, 4096
  %.not10 = icmp eq i64 %19, 0
  %or.cond = or i1 %.not13, %.not10
  br i1 %or.cond, label %RB_FL_TEST.exit.thread, label %23

RB_FL_TEST.exit.thread:                           ; preds = %17
  %20 = getelementptr inbounds nuw i8, ptr %13, i64 8
  %21 = load i64, ptr %20, align 8, !tbaa !42
  %22 = icmp eq i64 %21, %1
  br i1 %22, label %._crit_edge, label %23

23:                                               ; preds = %17, %.lr.ph, %RB_FL_TEST.exit.thread
  %.0.in = getelementptr inbounds nuw i8, ptr %13, i64 16
  %.0 = load i64, ptr %.0.in, align 8, !tbaa !34
  %.not = icmp eq i64 %.0, 0
  br i1 %.not, label %._crit_edge, label %.lr.ph, !llvm.loop !76

._crit_edge:                                      ; preds = %RB_FL_TEST.exit.thread, %23, %Check_Type.exit
  %.09 = phi i64 [ 0, %Check_Type.exit ], [ 0, %23 ], [ 20, %RB_FL_TEST.exit.thread ]
  ret i64 %.09
}